; ModuleID = 'bench/linux/original/compat.ll'
source_filename = "bench/linux/original/compat.ll"
target datalayout = "e-m:e-p270:32:32-p271:32:32-p272:64:64-i64:64-i128:128-f80:128-n8:16:32:64-S128"
target triple = "x86_64-unknown-linux-gnu"

%struct.compat_ipc64_perm = type { i32, i32, i32, i32, i32, i16, [2 x i8], i16, i16, i32, i32 }
%struct.compat_ipc_perm = type { i32, i16, i16, i16, i16, i16, i16 }

@overflowuid = external dso_local local_unnamed_addr global i32, align 4
@overflowgid = external dso_local local_unnamed_addr global i32, align 4

; Function Attrs: fn_ret_thunk_extern nounwind null_pointer_is_valid
define dso_local noundef i32 @get_compat_ipc64_perm(ptr nocapture noundef writeonly %0, ptr noundef %1) local_unnamed_addr #0 align 16 {
  %3 = alloca %struct.compat_ipc64_perm, align 4
  call void @llvm.lifetime.start.p0(i64 36, ptr nonnull %3) #6
  call void @llvm.memset.p0.i64(ptr noundef nonnull align 4 dereferenceable(36) %3, i8 0, i64 36, i1 false), !annotation !5
  %4 = call i64 @_copy_from_user(ptr noundef nonnull %3, ptr noundef %1, i64 noundef 36) #6
  %5 = icmp eq i64 %4, 0
  br i1 %5, label %6, label %17

6:                                                ; preds = %2
  %7 = getelementptr inbounds i8, ptr %3, i64 4
  %8 = load i32, ptr %7, align 4
  %9 = getelementptr inbounds i8, ptr %0, i64 4
  store i32 %8, ptr %9, align 4
  %10 = getelementptr inbounds i8, ptr %3, i64 8
  %11 = load i32, ptr %10, align 4
  %12 = getelementptr inbounds i8, ptr %0, i64 8
  store i32 %11, ptr %12, align 8
  %13 = getelementptr inbounds i8, ptr %3, i64 20
  %14 = load i16, ptr %13, align 4
  %15 = zext i16 %14 to i32
  %16 = getelementptr inbounds i8, ptr %0, i64 20
  store i32 %15, ptr %16, align 4
  br label %17

17:                                               ; preds = %6, %2
  %18 = phi i32 [ 0, %6 ], [ -14, %2 ]
  call void @llvm.lifetime.end.p0(i64 36, ptr nonnull %3) #6
  ret i32 %18
}

; Function Attrs: mustprogress nocallback nofree nosync nounwind willreturn memory(argmem: readwrite)
declare void @llvm.lifetime.start.p0(i64 immarg, ptr nocapture) #1

; Function Attrs: mustprogress nocallback nofree nounwind willreturn memory(argmem: write)
declare void @llvm.memset.p0.i64(ptr nocapture writeonly, i8, i64, i1 immarg) #2

; Function Attrs: mustprogress nocallback nofree nosync nounwind willreturn memory(argmem: readwrite)
declare void @llvm.lifetime.end.p0(i64 immarg, ptr nocapture) #1

; Function Attrs: fn_ret_thunk_extern nounwind null_pointer_is_valid
define dso_local noundef i32 @get_compat_ipc_perm(ptr nocapture noundef writeonly %0, ptr noundef %1) local_unnamed_addr #0 align 16 {
  %3 = alloca %struct.compat_ipc_perm, align 4
  call void @llvm.lifetime.start.p0(i64 16, ptr nonnull %3) #6
  call void @llvm.memset.p0.i64(ptr noundef nonnull align 4 dereferenceable(16) %3, i8 0, i64 16, i1 false), !annotation !5
  %4 = call i64 @_copy_from_user(ptr noundef nonnull %3, ptr noundef %1, i64 noundef 16) #6
  %5 = icmp eq i64 %4, 0
  br i1 %5, label %6, label %19

6:                                                ; preds = %2
  %7 = getelementptr inbounds i8, ptr %3, i64 4
  %8 = load i16, ptr %7, align 4
  %9 = zext i16 %8 to i32
  %10 = getelementptr inbounds i8, ptr %0, i64 4
  store i32 %9, ptr %10, align 4
  %11 = getelementptr inbounds i8, ptr %3, i64 6
  %12 = load i16, ptr %11, align 2
  %13 = zext i16 %12 to i32
  %14 = getelementptr inbounds i8, ptr %0, i64 8
  store i32 %13, ptr %14, align 8
  %15 = getelementptr inbounds i8, ptr %3, i64 12
  %16 = load i16, ptr %15, align 4
  %17 = zext i16 %16 to i32
  %18 = getelementptr inbounds i8, ptr %0, i64 20
  store i32 %17, ptr %18, align 4
  br label %19

19:                                               ; preds = %6, %2
  %20 = phi i32 [ 0, %6 ], [ -14, %2 ]
  call void @llvm.lifetime.end.p0(i64 16, ptr nonnull %3) #6
  ret i32 %20
}

; Function Attrs: fn_ret_thunk_extern mustprogress nofree norecurse nosync nounwind null_pointer_is_valid willreturn memory(argmem: readwrite)
define dso_local void @to_compat_ipc64_perm(ptr nocapture noundef writeonly %0, ptr nocapture noundef readonly %1) local_unnamed_addr #3 align 16 {
  %3 = load i32, ptr %1, align 8
  store i32 %3, ptr %0, align 4
  %4 = getelementptr inbounds i8, ptr %1, i64 4
  %5 = load i32, ptr %4, align 4
  %6 = getelementptr inbounds i8, ptr %0, i64 4
  store i32 %5, ptr %6, align 4
  %7 = getelementptr inbounds i8, ptr %1, i64 8
  %8 = load i32, ptr %7, align 8
  %9 = getelementptr inbounds i8, ptr %0, i64 8
  store i32 %8, ptr %9, align 4
  %10 = getelementptr inbounds i8, ptr %1, i64 12
  %11 = load i32, ptr %10, align 4
  %12 = getelementptr inbounds i8, ptr %0, i64 12
  store i32 %11, ptr %12, align 4
  %13 = getelementptr inbounds i8, ptr %1, i64 16
  %14 = load i32, ptr %13, align 8
  %15 = getelementptr inbounds i8, ptr %0, i64 16
  store i32 %14, ptr %15, align 4
  %16 = getelementptr inbounds i8, ptr %1, i64 20
  %17 = load i32, ptr %16, align 4
  %18 = trunc i32 %17 to i16
  %19 = getelementptr inbounds i8, ptr %0, i64 20
  store i16 %18, ptr %19, align 4
  %20 = getelementptr inbounds i8, ptr %1, i64 24
  %21 = load i16, ptr %20, align 8
  %22 = getelementptr inbounds i8, ptr %0, i64 24
  store i16 %21, ptr %22, align 4
  ret void
}

; Function Attrs: fn_ret_thunk_extern mustprogress nofree norecurse nosync nounwind null_pointer_is_valid willreturn memory(read, argmem: readwrite, inaccessiblemem: none)
define dso_local void @to_compat_ipc_perm(ptr nocapture noundef writeonly %0, ptr nocapture noundef readonly %1) local_unnamed_addr #4 align 16 {
  %3 = load i32, ptr %1, align 8
  store i32 %3, ptr %0, align 4
  %4 = getelementptr inbounds i8, ptr %1, i64 4
  %5 = load i32, ptr %4, align 4
  %6 = icmp ult i32 %5, 65536
  %7 = load i32, ptr @overflowuid, align 4
  %8 = select i1 %6, i32 %5, i32 %7
  %9 = trunc i32 %8 to i16
  %10 = getelementptr inbounds i8, ptr %0, i64 4
  store i16 %9, ptr %10, align 4
  %11 = getelementptr inbounds i8, ptr %1, i64 8
  %12 = load i32, ptr %11, align 8
  %13 = icmp ult i32 %12, 65536
  %14 = load i32, ptr @overflowgid, align 4
  %15 = select i1 %13, i32 %12, i32 %14
  %16 = trunc i32 %15 to i16
  %17 = getelementptr inbounds i8, ptr %0, i64 6
  store i16 %16, ptr %17, align 2
  %18 = getelementptr inbounds i8, ptr %1, i64 12
  %19 = load i32, ptr %18, align 4
  %20 = icmp ult i32 %19, 65536
  %21 = select i1 %20, i32 %19, i32 %7
  %22 = trunc i32 %21 to i16
  %23 = getelementptr inbounds i8, ptr %0, i64 8
  store i16 %22, ptr %23, align 4
  %24 = getelementptr inbounds i8, ptr %1, i64 16
  %25 = load i32, ptr %24, align 8
  %26 = icmp ult i32 %25, 65536
  %27 = select i1 %26, i32 %25, i32 %14
  %28 = trunc i32 %27 to i16
  %29 = getelementptr inbounds i8, ptr %0, i64 10
  store i16 %28, ptr %29, align 2
  %30 = getelementptr inbounds i8, ptr %1, i64 20
  %31 = load i32, ptr %30, align 4
  %32 = trunc i32 %31 to i16
  %33 = getelementptr inbounds i8, ptr %0, i64 12
  store i16 %32, ptr %33, align 4
  %34 = getelementptr inbounds i8, ptr %1, i64 24
  %35 = load i16, ptr %34, align 8
  %36 = getelementptr inbounds i8, ptr %0, i64 14
  store i16 %35, ptr %36, align 2
  ret void
}

; Function Attrs: null_pointer_is_valid
declare dso_local i64 @_copy_from_user(ptr noundef, ptr noundef, i64 noundef) local_unnamed_addr #5


!llvm.module.flags = !{!0, !1, !2, !3, !4}

!0 = !{i32 1, !"wchar_size", i32 2}
!1 = !{i32 8, !"cf-protection-branch", i32 1}
!2 = !{i32 4, !"function_return_thunk_extern", i32 1}
!3 = !{i32 4, !"indirect_branch_cs_prefix", i32 1}
!4 = !{i32 4, !"SkipRaxSetup", i32 1}
!5 = !{!"auto-init"}
